target datalayout = "e-m:e-p270:32:32-p271:32:32-p272:64:64-i64:64-i128:128-f80:128-n8:16:32:64-S128"
target triple = "x86_64-pc-linux-gnu"

%class.cmCPackIFWCommon = type { ptr }
%class.cmCPackIFWGenerator = type { %class.cmCPackGenerator, %class.cmCPackIFWCommon, %class.cmCPackIFWInstaller, %class.cmCPackIFWRepository, %"class.std::map.31", %"class.std::map.36", %"class.std::set", %"class.std::set", %"class.std::map.46", %"class.std::map.51", %"class.std::map.57", %"class.std::__cxx11::basic_string", %"class.std::__cxx11::basic_string", %"class.std::__cxx11::basic_string", %"class.std::__cxx11::basic_string", %"class.std::__cxx11::basic_string", %"class.std::__cxx11::basic_string", %"class.std::__cxx11::basic_string", i8, i8, %"class.std::vector", %"class.std::vector" }
%class.cmCPackGenerator = type { ptr, i32, %"class.std::__cxx11::basic_string", %"class.std::__cxx11::basic_string", %"class.std::vector", %"class.std::__cxx11::basic_string", %"class.std::vector", %"class.std::vector.3", %"class.std::map", %"class.std::map.11", %"class.std::map.16", i32, ptr, i8, i8, ptr }
%"class.std::vector.3" = type { %"struct.std::_Vector_base.4" }
%"struct.std::_Vector_base.4" = type { %"struct.std::_Vector_base<cmCPackInstallCMakeProject, std::allocator<cmCPackInstallCMakeProject>>::_Vector_impl" }
%"struct.std::_Vector_base<cmCPackInstallCMakeProject, std::allocator<cmCPackInstallCMakeProject>>::_Vector_impl" = type { %"struct.std::_Vector_base<cmCPackInstallCMakeProject, std::allocator<cmCPackInstallCMakeProject>>::_Vector_impl_data" }
%"struct.std::_Vector_base<cmCPackInstallCMakeProject, std::allocator<cmCPackInstallCMakeProject>>::_Vector_impl_data" = type { ptr, ptr, ptr }
%"class.std::map" = type { %"class.std::_Rb_tree" }
%"class.std::_Rb_tree" = type { %"struct.std::_Rb_tree<std::__cxx11::basic_string<char>, std::pair<const std::__cxx11::basic_string<char>, cmCPackInstallationType>, std::_Select1st<std::pair<const std::__cxx11::basic_string<char>, cmCPackInstallationType>>, std::less<std::__cxx11::basic_string<char>>>::_Rb_tree_impl" }
%"struct.std::_Rb_tree<std::__cxx11::basic_string<char>, std::pair<const std::__cxx11::basic_string<char>, cmCPackInstallationType>, std::_Select1st<std::pair<const std::__cxx11::basic_string<char>, cmCPackInstallationType>>, std::less<std::__cxx11::basic_string<char>>>::_Rb_tree_impl" = type { [8 x i8], %"struct.std::_Rb_tree_header" }
%"struct.std::_Rb_tree_header" = type { %"struct.std::_Rb_tree_node_base", i64 }
%"struct.std::_Rb_tree_node_base" = type { i32, ptr, ptr, ptr }
%"class.std::map.11" = type { %"class.std::_Rb_tree.12" }
%"class.std::_Rb_tree.12" = type { %"struct.std::_Rb_tree<std::__cxx11::basic_string<char>, std::pair<const std::__cxx11::basic_string<char>, cmCPackComponent>, std::_Select1st<std::pair<const std::__cxx11::basic_string<char>, cmCPackComponent>>, std::less<std::__cxx11::basic_string<char>>>::_Rb_tree_impl" }
%"struct.std::_Rb_tree<std::__cxx11::basic_string<char>, std::pair<const std::__cxx11::basic_string<char>, cmCPackComponent>, std::_Select1st<std::pair<const std::__cxx11::basic_string<char>, cmCPackComponent>>, std::less<std::__cxx11::basic_string<char>>>::_Rb_tree_impl" = type { [8 x i8], %"struct.std::_Rb_tree_header" }
%"class.std::map.16" = type { %"class.std::_Rb_tree.17" }
%"class.std::_Rb_tree.17" = type { %"struct.std::_Rb_tree<std::__cxx11::basic_string<char>, std::pair<const std::__cxx11::basic_string<char>, cmCPackComponentGroup>, std::_Select1st<std::pair<const std::__cxx11::basic_string<char>, cmCPackComponentGroup>>, std::less<std::__cxx11::basic_string<char>>>::_Rb_tree_impl" }
%"struct.std::_Rb_tree<std::__cxx11::basic_string<char>, std::pair<const std::__cxx11::basic_string<char>, cmCPackComponentGroup>, std::_Select1st<std::pair<const std::__cxx11::basic_string<char>, cmCPackComponentGroup>>, std::less<std::__cxx11::basic_string<char>>>::_Rb_tree_impl" = type { [8 x i8], %"struct.std::_Rb_tree_header" }
%class.cmCPackIFWInstaller = type { %class.cmCPackIFWCommon, %"class.std::__cxx11::basic_string", %"class.std::__cxx11::basic_string", %"class.std::__cxx11::basic_string", %"class.std::__cxx11::basic_string", %"class.std::__cxx11::basic_string", %"class.std::__cxx11::basic_string", %"class.std::__cxx11::basic_string", %"class.std::__cxx11::basic_string", %"class.std::__cxx11::basic_string", %"class.std::__cxx11::basic_string", %"class.std::__cxx11::basic_string", %"class.std::__cxx11::basic_string", %"class.std::__cxx11::basic_string", %"class.std::__cxx11::basic_string", %"class.std::__cxx11::basic_string", %"class.std::__cxx11::basic_string", %"class.std::__cxx11::basic_string", %"class.std::__cxx11::basic_string", %"class.std::__cxx11::basic_string", %"class.std::__cxx11::basic_string", %"class.std::__cxx11::basic_string", %"class.std::__cxx11::basic_string", %"class.std::__cxx11::basic_string", %"class.std::__cxx11::basic_string", %"class.std::__cxx11::basic_string", %"class.std::__cxx11::basic_string", %"class.std::__cxx11::basic_string", %"class.std::vector", %"class.std::vector", %"class.std::vector", %"class.std::__cxx11::basic_string", %"class.std::vector", %"class.std::__cxx11::basic_string", %"class.std::map.21", %"class.std::vector.26", %"class.std::__cxx11::basic_string" }
%"class.std::map.21" = type { %"class.std::_Rb_tree.22" }
%"class.std::_Rb_tree.22" = type { %"struct.std::_Rb_tree<std::__cxx11::basic_string<char>, std::pair<const std::__cxx11::basic_string<char>, cmCPackIFWPackage *>, std::_Select1st<std::pair<const std::__cxx11::basic_string<char>, cmCPackIFWPackage *>>, std::less<std::__cxx11::basic_string<char>>>::_Rb_tree_impl" }
%"struct.std::_Rb_tree<std::__cxx11::basic_string<char>, std::pair<const std::__cxx11::basic_string<char>, cmCPackIFWPackage *>, std::_Select1st<std::pair<const std::__cxx11::basic_string<char>, cmCPackIFWPackage *>>, std::less<std::__cxx11::basic_string<char>>>::_Rb_tree_impl" = type { [8 x i8], %"struct.std::_Rb_tree_header" }
%"class.std::vector.26" = type { %"struct.std::_Vector_base.27" }
%"struct.std::_Vector_base.27" = type { %"struct.std::_Vector_base<cmCPackIFWRepository *, std::allocator<cmCPackIFWRepository *>>::_Vector_impl" }
%"struct.std::_Vector_base<cmCPackIFWRepository *, std::allocator<cmCPackIFWRepository *>>::_Vector_impl" = type { %"struct.std::_Vector_base<cmCPackIFWRepository *, std::allocator<cmCPackIFWRepository *>>::_Vector_impl_data" }
%"struct.std::_Vector_base<cmCPackIFWRepository *, std::allocator<cmCPackIFWRepository *>>::_Vector_impl_data" = type { ptr, ptr, ptr }
%class.cmCPackIFWRepository = type { %class.cmCPackIFWCommon, %"class.std::__cxx11::basic_string", i32, %"class.std::__cxx11::basic_string", %"class.std::__cxx11::basic_string", %"class.std::__cxx11::basic_string", %"class.std::__cxx11::basic_string", %"class.std::__cxx11::basic_string", %"class.std::__cxx11::basic_string", %"class.std::__cxx11::basic_string", %"class.std::vector.26", %"class.std::__cxx11::basic_string" }
%"class.std::map.31" = type { %"class.std::_Rb_tree.32" }
%"class.std::_Rb_tree.32" = type { %"struct.std::_Rb_tree<std::__cxx11::basic_string<char>, std::pair<const std::__cxx11::basic_string<char>, cmCPackIFWPackage>, std::_Select1st<std::pair<const std::__cxx11::basic_string<char>, cmCPackIFWPackage>>, std::less<std::__cxx11::basic_string<char>>>::_Rb_tree_impl" }
%"struct.std::_Rb_tree<std::__cxx11::basic_string<char>, std::pair<const std::__cxx11::basic_string<char>, cmCPackIFWPackage>, std::_Select1st<std::pair<const std::__cxx11::basic_string<char>, cmCPackIFWPackage>>, std::less<std::__cxx11::basic_string<char>>>::_Rb_tree_impl" = type { [8 x i8], %"struct.std::_Rb_tree_header" }
%"class.std::map.36" = type { %"class.std::_Rb_tree.37" }
%"class.std::_Rb_tree.37" = type { %"struct.std::_Rb_tree<std::__cxx11::basic_string<char>, std::pair<const std::__cxx11::basic_string<char>, cmCPackIFWRepository>, std::_Select1st<std::pair<const std::__cxx11::basic_string<char>, cmCPackIFWRepository>>, std::less<std::__cxx11::basic_string<char>>>::_Rb_tree_impl" }
%"struct.std::_Rb_tree<std::__cxx11::basic_string<char>, std::pair<const std::__cxx11::basic_string<char>, cmCPackIFWRepository>, std::_Select1st<std::pair<const std::__cxx11::basic_string<char>, cmCPackIFWRepository>>, std::less<std::__cxx11::basic_string<char>>>::_Rb_tree_impl" = type { [8 x i8], %"struct.std::_Rb_tree_header" }
%"class.std::set" = type { %"class.std::_Rb_tree.41" }
%"class.std::_Rb_tree.41" = type { %"struct.std::_Rb_tree<cmCPackIFWPackage *, cmCPackIFWPackage *, std::_Identity<cmCPackIFWPackage *>, std::less<cmCPackIFWPackage *>>::_Rb_tree_impl" }
%"struct.std::_Rb_tree<cmCPackIFWPackage *, cmCPackIFWPackage *, std::_Identity<cmCPackIFWPackage *>, std::less<cmCPackIFWPackage *>>::_Rb_tree_impl" = type { [8 x i8], %"struct.std::_Rb_tree_header" }
%"class.std::map.46" = type { %"class.std::_Rb_tree.47" }
%"class.std::_Rb_tree.47" = type { %"struct.std::_Rb_tree<std::__cxx11::basic_string<char>, std::pair<const std::__cxx11::basic_string<char>, cmCPackIFWPackage::DependenceStruct>, std::_Select1st<std::pair<const std::__cxx11::basic_string<char>, cmCPackIFWPackage::DependenceStruct>>, std::less<std::__cxx11::basic_string<char>>>::_Rb_tree_impl" }
%"struct.std::_Rb_tree<std::__cxx11::basic_string<char>, std::pair<const std::__cxx11::basic_string<char>, cmCPackIFWPackage::DependenceStruct>, std::_Select1st<std::pair<const std::__cxx11::basic_string<char>, cmCPackIFWPackage::DependenceStruct>>, std::less<std::__cxx11::basic_string<char>>>::_Rb_tree_impl" = type { [8 x i8], %"struct.std::_Rb_tree_header" }
%"class.std::map.51" = type { %"class.std::_Rb_tree.52" }
%"class.std::_Rb_tree.52" = type { %"struct.std::_Rb_tree<cmCPackComponent *, std::pair<cmCPackComponent *const, cmCPackIFWPackage *>, std::_Select1st<std::pair<cmCPackComponent *const, cmCPackIFWPackage *>>, std::less<cmCPackComponent *>>::_Rb_tree_impl" }
%"struct.std::_Rb_tree<cmCPackComponent *, std::pair<cmCPackComponent *const, cmCPackIFWPackage *>, std::_Select1st<std::pair<cmCPackComponent *const, cmCPackIFWPackage *>>, std::less<cmCPackComponent *>>::_Rb_tree_impl" = type { [8 x i8], %"struct.std::_Rb_tree_header" }
%"class.std::map.57" = type { %"class.std::_Rb_tree.58" }
%"class.std::_Rb_tree.58" = type { %"struct.std::_Rb_tree<cmCPackComponentGroup *, std::pair<cmCPackComponentGroup *const, cmCPackIFWPackage *>, std::_Select1st<std::pair<cmCPackComponentGroup *const, cmCPackIFWPackage *>>, std::less<cmCPackComponentGroup *>>::_Rb_tree_impl" }
%"struct.std::_Rb_tree<cmCPackComponentGroup *, std::pair<cmCPackComponentGroup *const, cmCPackIFWPackage *>, std::_Select1st<std::pair<cmCPackComponentGroup *const, cmCPackIFWPackage *>>, std::less<cmCPackComponentGroup *>>::_Rb_tree_impl" = type { [8 x i8], %"struct.std::_Rb_tree_header" }
%"class.std::__cxx11::basic_string" = type { %"struct.std::__cxx11::basic_string<char>::_Alloc_hider", i64, %union.anon }
%"struct.std::__cxx11::basic_string<char>::_Alloc_hider" = type { ptr }
%union.anon = type { i64, [8 x i8] }
%"class.std::vector" = type { %"struct.std::_Vector_base" }
%"struct.std::_Vector_base" = type { %"struct.std::_Vector_base<std::__cxx11::basic_string<char>, std::allocator<std::__cxx11::basic_string<char>>>::_Vector_impl" }
%"struct.std::_Vector_base<std::__cxx11::basic_string<char>, std::allocator<std::__cxx11::basic_string<char>>>::_Vector_impl" = type { %"struct.std::_Vector_base<std::__cxx11::basic_string<char>, std::allocator<std::__cxx11::basic_string<char>>>::_Vector_impl_data" }
%"struct.std::_Vector_base<std::__cxx11::basic_string<char>, std::allocator<std::__cxx11::basic_string<char>>>::_Vector_impl_data" = type { ptr, ptr, ptr }

; Function Attrs: mustprogress uwtable
define dso_local noundef zeroext i1 @_ZNK16cmCPackIFWCommon13IsVersionLessEPKc(ptr noundef nonnull align 8 dereferenceable(8) %0, ptr noundef %1) #5 align 2 {
  %3 = alloca i1, align 1
  %4 = alloca ptr, align 8
  %5 = alloca ptr, align 8
  store ptr %0, ptr %4, align 8, !tbaa !4
  store ptr %1, ptr %5, align 8, !tbaa !20
  %6 = load ptr, ptr %4, align 8
  %7 = getelementptr inbounds nuw %class.cmCPackIFWCommon, ptr %6, i32 0, i32 0
  %8 = load ptr, ptr %7, align 8, !tbaa !9
  %9 = icmp ne ptr %8, null
  br i1 %9, label %11, label %10

10:                                               ; preds = %2
  store i1 false, ptr %3, align 1
  br label %17

11:                                               ; preds = %2
  %12 = getelementptr inbounds nuw %class.cmCPackIFWCommon, ptr %6, i32 0, i32 0
  %13 = load ptr, ptr %12, align 8, !tbaa !9
  %14 = getelementptr inbounds nuw %class.cmCPackIFWGenerator, ptr %13, i32 0, i32 13
  %15 = load ptr, ptr %5, align 8, !tbaa !20
  %16 = call noundef zeroext i1 @_ZN13cmSystemTools14VersionCompareENS_9CompareOpERKNSt7__cxx1112basic_stringIcSt11char_traitsIcESaIcEEEPKc(i32 noundef 2, ptr noundef nonnull align 8 dereferenceable(32) %14, ptr noundef %15)
  store i1 %16, ptr %3, align 1
  br label %17

17:                                               ; preds = %11, %10
  %18 = load i1, ptr %3, align 1
  ret i1 %18
}